; ModuleID = '29/308.c'
source_filename = "29/308.c"
target datalayout = "e-m:e-p270:32:32-p271:32:32-p272:64:64-i64:64-f80:128-n8:16:32:64-S128"
target triple = "x86_64-pc-linux-gnu"

@.str = private unnamed_addr constant [3 x i8] c"%d\00", align 1
@.str.1 = private unnamed_addr constant [7 x i8] c"%.3lf\0A\00", align 1

; Function Attrs: noinline nounwind uwtable
define dso_local i32 @main(i32 %0, i8** %1) #0 {
  %3 = alloca i32, align 4
  %4 = alloca i32, align 4
  %5 = alloca i8**, align 8
  %6 = alloca i32, align 4
  %7 = alloca [1000 x i32], align 16
  %8 = alloca [1000 x double], align 16
  %9 = alloca double, align 8
  %10 = alloca double, align 8
  %11 = alloca i32, align 4
  %12 = alloca i32, align 4
  %13 = alloca double, align 8
  store i32 0, i32* %3, align 4
  store i32 %0, i32* %4, align 4
  store i8** %1, i8*** %5, align 8
  %14 = call i32 (i8*, ...) @__isoc99_scanf(i8* getelementptr inbounds ([3 x i8], [3 x i8]* @.str, i64 0, i64 0), i32* %6)
  store double 2.000000e+00, double* %9, align 8
  store double 1.000000e+00, double* %10, align 8
  store i32 0, i32* %11, align 4
  br label %15

15:                                               ; preds = %27, %2
  %16 = load i32, i32* %11, align 4
  %17 = load i32, i32* %6, align 4
  %18 = icmp slt i32 %16, %17
  br i1 %18, label %19, label %30

19:                                               ; preds = %15
  %20 = load i32, i32* %11, align 4
  %21 = sext i32 %20 to i64
  %22 = getelementptr inbounds [1000 x i32], [1000 x i32]* %7, i64 0, i64 %21
  %23 = call i32 (i8*, ...) @__isoc99_scanf(i8* getelementptr inbounds ([3 x i8], [3 x i8]* @.str, i64 0, i64 0), i32* %22)
  %24 = load i32, i32* %11, align 4
  %25 = sext i32 %24 to i64
  %26 = getelementptr inbounds [1000 x double], [1000 x double]* %8, i64 0, i64 %25
  store double 0.000000e+00, double* %26, align 8
  br label %27

27:                                               ; preds = %19
  %28 = load i32, i32* %11, align 4
  %29 = add nsw i32 %28, 1
  store i32 %29, i32* %11, align 4
  br label %15

30:                                               ; preds = %15
  store i32 0, i32* %11, align 4
  br label %31

31:                                               ; preds = %66, %30
  %32 = load i32, i32* %11, align 4
  %33 = load i32, i32* %6, align 4
  %34 = icmp slt i32 %32, %33
  br i1 %34, label %35, label %69

35:                                               ; preds = %31
  store double 2.000000e+00, double* %9, align 8
  store double 1.000000e+00, double* %10, align 8
  store i32 0, i32* %12, align 4
  br label %36

36:                                               ; preds = %57, %35
  %37 = load i32, i32* %12, align 4
  %38 = load i32, i32* %11, align 4
  %39 = sext i32 %38 to i64
  %40 = getelementptr inbounds [1000 x i32], [1000 x i32]* %7, i64 0, i64 %39
  %41 = load i32, i32* %40, align 4
  %42 = icmp slt i32 %37, %41
  br i1 %42, label %43, label %60

43:                                               ; preds = %36
  %44 = load double, double* %9, align 8
  %45 = load double, double* %10, align 8
  %46 = fdiv double %44, %45
  %47 = load i32, i32* %11, align 4
  %48 = sext i32 %47 to i64
  %49 = getelementptr inbounds [1000 x double], [1000 x double]* %8, i64 0, i64 %48
  %50 = load double, double* %49, align 8
  %51 = fadd double %50, %46
  store double %51, double* %49, align 8
  %52 = load double, double* %9, align 8
  store double %52, double* %13, align 8
  %53 = load double, double* %9, align 8
  %54 = load double, double* %10, align 8
  %55 = fadd double %53, %54
  store double %55, double* %9, align 8
  %56 = load double, double* %13, align 8
  store double %56, double* %10, align 8
  br label %57

57:                                               ; preds = %43
  %58 = load i32, i32* %12, align 4
  %59 = add nsw i32 %58, 1
  store i32 %59, i32* %12, align 4
  br label %36

60:                                               ; preds = %36
  %61 = load i32, i32* %11, align 4
  %62 = sext i32 %61 to i64
  %63 = getelementptr inbounds [1000 x double], [1000 x double]* %8, i64 0, i64 %62
  %64 = load double, double* %63, align 8
  %65 = call i32 (i8*, ...) @printf(i8* getelementptr inbounds ([7 x i8], [7 x i8]* @.str.1, i64 0, i64 0), double %64)
  br label %66

66:                                               ; preds = %60
  %67 = load i32, i32* %11, align 4
  %68 = add nsw i32 %67, 1
  store i32 %68, i32* %11, align 4
  br label %31

69:                                               ; preds = %31
  ret i32 0
}

declare dso_local i32 @__isoc99_scanf(i8*, ...) #1

declare dso_local i32 @printf(i8*, ...) #1


!llvm.module.flags = !{!0}
!llvm.ident = !{!1}

!0 = !{i32 1, !"wchar_size", i32 4}
!1 = !{!"clang version 10.0.0-4ubuntu1 "}
